; Function Attrs: mustprogress nounwind uwtable
define hidden void @_ZN11ClassLoader24setup_module_search_pathEP10JavaThreadPKc(ptr noundef %0, ptr noundef %1) local_unnamed_addr #0 align 2 {
  %3 = alloca %struct.stat, align 8
  %4 = call noundef i32 @_ZN2os4statEPKcP4stat(ptr noundef %1, ptr noundef nonnull %3) #20
  %.not = icmp eq i32 %4, 0
  br i1 %.not, label %10, label %5

5:                                                ; preds = %2
  %6 = load ptr, ptr @tty, align 8
  %7 = tail call ptr @__errno_location() #23
  %8 = load i32, ptr %7, align 4
  %9 = call noundef ptr @_ZN2os10errno_nameEi(i32 noundef %8) #20
  call void (ptr, ptr, ...) @_ZN12outputStream8print_crEPKcz(ptr noundef nonnull align 8 dereferenceable(56) %6, ptr noundef nonnull @.str.24, i32 noundef %8, ptr noundef %9, ptr noundef %1) #20
  call void @_Z29vm_exit_during_initializationv() #20
  br label %10

10:                                               ; preds = %5, %2
  %11 = call noundef ptr @_ZN11ClassLoader23create_class_path_entryEP10JavaThreadPKcPK4statbb(ptr noundef %0, ptr noundef %1, ptr noundef nonnull %3, i1 zeroext poison, i1 noundef zeroext false)
  %.not7 = icmp eq ptr %11, null
  br i1 %.not7, label %19, label %12

12:                                               ; preds = %10
  %13 = load ptr, ptr @_ZN11ClassLoader20_module_path_entriesE, align 8
  %14 = icmp eq ptr %13, null
  br i1 %14, label %15, label %16

15:                                               ; preds = %12
  store ptr %11, ptr @_ZN11ClassLoader20_module_path_entriesE, align 8
  br label %_ZN11ClassLoader26add_to_module_path_entriesEPKcP14ClassPathEntry.exit

16:                                               ; preds = %12
  %17 = load ptr, ptr @_ZN11ClassLoader23_last_module_path_entryE, align 8
  %18 = getelementptr inbounds i8, ptr %17, i64 8
  call void asm sideeffect "", "~{memory},~{dirflag},~{fpsr},~{flags}"() #20, !srcloc !9
  store volatile ptr %11, ptr %18, align 8
  br label %_ZN11ClassLoader26add_to_module_path_entriesEPKcP14ClassPathEntry.exit

_ZN11ClassLoader26add_to_module_path_entriesEPKcP14ClassPathEntry.exit: ; preds = %15, %16
  store ptr %11, ptr @_ZN11ClassLoader23_last_module_path_entryE, align 8
  br label %19

19:                                               ; preds = %_ZN11ClassLoader26add_to_module_path_entriesEPKcP14ClassPathEntry.exit, %10
  ret void
}